target datalayout = "e-m:e-p270:32:32-p271:32:32-p272:64:64-i64:64-i128:128-f80:128-n8:16:32:64-S128"
target triple = "x86_64-pc-linux-gnu"

%struct.mbedtls_ssl_ciphersuite_t = type { i32, ptr, i8, i8, i8, i8, i16, i16 }

@supported_init = internal global i32 0, align 4
@supported_ciphersuites = internal global [171 x i32] zeroinitializer, align 16

; Function Attrs: nounwind uwtable
define internal i32 @ciphersuite_is_removed(ptr noundef %0) #0 {
  %2 = alloca ptr, align 8
  store ptr %0, ptr %2, align 8, !tbaa !10
  ret i32 0
}

; Function Attrs: nounwind uwtable
define hidden ptr @mbedtls_ssl_ciphersuite_from_id(i32 noundef %0) #0 {
  %2 = alloca ptr, align 8
  %3 = alloca i32, align 4
  %4 = alloca ptr, align 8
  %5 = alloca i32, align 4
  store i32 %0, ptr %3, align 4, !tbaa !3
  call void @llvm.lifetime.start.p0(i64 8, ptr %4) #5
  store ptr @ciphersuite_definitions, ptr %4, align 8, !tbaa !10
  br label %6

6:                                                ; preds = %19, %1
  %7 = load ptr, ptr %4, align 8, !tbaa !10
  %8 = getelementptr inbounds nuw %struct.mbedtls_ssl_ciphersuite_t, ptr %7, i32 0, i32 0
  %9 = load i32, ptr %8, align 8, !tbaa !14
  %10 = icmp ne i32 %9, 0
  br i1 %10, label %11, label %22

11:                                               ; preds = %6
  %12 = load ptr, ptr %4, align 8, !tbaa !10
  %13 = getelementptr inbounds nuw %struct.mbedtls_ssl_ciphersuite_t, ptr %12, i32 0, i32 0
  %14 = load i32, ptr %13, align 8, !tbaa !14
  %15 = load i32, ptr %3, align 4, !tbaa !3
  %16 = icmp eq i32 %14, %15
  br i1 %16, label %17, label %19

17:                                               ; preds = %11
  %18 = load ptr, ptr %4, align 8, !tbaa !10
  store ptr %18, ptr %2, align 8
  store i32 1, ptr %5, align 4
  br label %23

19:                                               ; preds = %11
  %20 = load ptr, ptr %4, align 8, !tbaa !10
  %21 = getelementptr inbounds nuw %struct.mbedtls_ssl_ciphersuite_t, ptr %20, i32 1
  store ptr %21, ptr %4, align 8, !tbaa !10
  br label %6, !llvm.loop !18

22:                                               ; preds = %6
  store ptr null, ptr %2, align 8
  store i32 1, ptr %5, align 4
  br label %23

23:                                               ; preds = %22, %17
  call void @llvm.lifetime.end.p0(i64 8, ptr %4) #5
  %24 = load ptr, ptr %2, align 8
  ret ptr %24
}

; Function Attrs: nounwind uwtable
define hidden ptr @mbedtls_ssl_list_ciphersuites() #0 {
  %1 = alloca ptr, align 8
  %2 = alloca ptr, align 8
  %3 = alloca ptr, align 8
  %4 = load i32, ptr @supported_init, align 4, !tbaa !3
  %5 = icmp eq i32 %4, 0
  br i1 %5, label %6, label %36

6:                                                ; preds = %0
  call void @llvm.lifetime.start.p0(i64 8, ptr %1) #5
  call void @llvm.lifetime.start.p0(i64 8, ptr %2) #5
  store ptr @ciphersuite_preference, ptr %1, align 8, !tbaa !7
  store ptr @supported_ciphersuites, ptr %2, align 8, !tbaa !7
  br label %7

7:                                                ; preds = %31, %6
  %8 = load ptr, ptr %1, align 8, !tbaa !7
  %9 = load i32, ptr %8, align 4, !tbaa !3
  %10 = icmp ne i32 %9, 0
  br i1 %10, label %11, label %14

11:                                               ; preds = %7
  %12 = load ptr, ptr %2, align 8, !tbaa !7
  %13 = icmp ult ptr %12, getelementptr inbounds (i32, ptr getelementptr inbounds nuw (i32, ptr @supported_ciphersuites, i64 171), i64 -1)
  br label %14

14:                                               ; preds = %11, %7
  %15 = phi i1 [ false, %7 ], [ %13, %11 ]
  br i1 %15, label %16, label %34

16:                                               ; preds = %14
  call void @llvm.lifetime.start.p0(i64 8, ptr %3) #5
  %17 = load ptr, ptr %1, align 8, !tbaa !7
  %18 = load i32, ptr %17, align 4, !tbaa !3
  %19 = call ptr @mbedtls_ssl_ciphersuite_from_id(i32 noundef %18)
  store ptr %19, ptr %3, align 8, !tbaa !10
  %20 = icmp ne ptr %19, null
  br i1 %20, label %21, label %30

21:                                               ; preds = %16
  %22 = load ptr, ptr %3, align 8, !tbaa !10
  %23 = call i32 @ciphersuite_is_removed(ptr noundef %22)
  %24 = icmp ne i32 %23, 0
  br i1 %24, label %30, label %25

25:                                               ; preds = %21
  %26 = load ptr, ptr %1, align 8, !tbaa !7
  %27 = load i32, ptr %26, align 4, !tbaa !3
  %28 = load ptr, ptr %2, align 8, !tbaa !7
  %29 = getelementptr inbounds nuw i32, ptr %28, i32 1
  store ptr %29, ptr %2, align 8, !tbaa !7
  store i32 %27, ptr %28, align 4, !tbaa !3
  br label %30

30:                                               ; preds = %25, %21, %16
  call void @llvm.lifetime.end.p0(i64 8, ptr %3) #5
  br label %31

31:                                               ; preds = %30
  %32 = load ptr, ptr %1, align 8, !tbaa !7
  %33 = getelementptr inbounds nuw i32, ptr %32, i32 1
  store ptr %33, ptr %1, align 8, !tbaa !7
  br label %7, !llvm.loop !12

34:                                               ; preds = %14
  %35 = load ptr, ptr %2, align 8, !tbaa !7
  store i32 0, ptr %35, align 4, !tbaa !3
  store i32 1, ptr @supported_init, align 4, !tbaa !3
  call void @llvm.lifetime.end.p0(i64 8, ptr %2) #5
  call void @llvm.lifetime.end.p0(i64 8, ptr %1) #5
  br label %36

36:                                               ; preds = %34, %0
  ret ptr @supported_ciphersuites
}