; Function Attrs: nofree norecurse nosync nounwind memory(readwrite, argmem: none, inaccessiblemem: none) uwtable
define hidden noundef nonnull ptr @mbedtls_ssl_list_ciphersuites() local_unnamed_addr #0 {
  %.b = load i1, ptr @supported_init, align 4
  br i1 %.b, label %14, label %.preheader

.preheader:                                       ; preds = %0, %mbedtls_ssl_ciphersuite_from_id.exit.thread
  %1 = phi i32 [ %9, %mbedtls_ssl_ciphersuite_from_id.exit.thread ], [ 4867, %0 ]
  %.08.ptr16 = phi ptr [ %.08.ptr, %mbedtls_ssl_ciphersuite_from_id.exit.thread ], [ @supported_ciphersuites, %0 ]
  %.015 = phi ptr [ %8, %mbedtls_ssl_ciphersuite_from_id.exit.thread ], [ @ciphersuite_preference, %0 ]
  %.08.idx14 = phi i64 [ %.1.idx, %mbedtls_ssl_ciphersuite_from_id.exit.thread ], [ 0, %0 ]
  br label %2

2:                                                ; preds = %.preheader, %5
  %3 = phi i32 [ %7, %5 ], [ 4866, %.preheader ]
  %.07.i = phi ptr [ %6, %5 ], [ @ciphersuite_definitions, %.preheader ]
  %4 = icmp eq i32 %3, %1
  br i1 %4, label %mbedtls_ssl_ciphersuite_from_id.exit, label %5

5:                                                ; preds = %2
  %6 = getelementptr inbounds nuw i8, ptr %.07.i, i64 24
  %7 = load i32, ptr %6, align 8, !tbaa !3
  %.not.i = icmp eq i32 %7, 0
  br i1 %.not.i, label %mbedtls_ssl_ciphersuite_from_id.exit.thread, label %2, !llvm.loop !11

mbedtls_ssl_ciphersuite_from_id.exit:             ; preds = %2
  %.08.add = add nuw nsw i64 %.08.idx14, 4
  store i32 %1, ptr %.08.ptr16, align 4, !tbaa !13
  br label %mbedtls_ssl_ciphersuite_from_id.exit.thread

mbedtls_ssl_ciphersuite_from_id.exit.thread:      ; preds = %5, %mbedtls_ssl_ciphersuite_from_id.exit
  %.1.idx = phi i64 [ %.08.add, %mbedtls_ssl_ciphersuite_from_id.exit ], [ %.08.idx14, %5 ]
  %8 = getelementptr inbounds nuw i8, ptr %.015, i64 4
  %.08.ptr = getelementptr inbounds nuw i8, ptr @supported_ciphersuites, i64 %.1.idx
  %9 = load i32, ptr %8, align 4, !tbaa !13
  %10 = icmp ne i32 %9, 0
  %11 = icmp slt i64 %.1.idx, 680
  %12 = select i1 %10, i1 %11, i1 false
  br i1 %12, label %.preheader, label %13, !llvm.loop !14

13:                                               ; preds = %mbedtls_ssl_ciphersuite_from_id.exit.thread
  store i32 0, ptr %.08.ptr, align 4, !tbaa !13
  store i1 true, ptr @supported_init, align 4
  br label %14

14:                                               ; preds = %13, %0
  ret ptr @supported_ciphersuites
}